; Function Attrs: mustprogress uwtable
define void @_ZNK32pxrInternal_v0_24__pxrReserved__16SdfAttributeSpec11GetRoleNameEv(ptr dead_on_unwind noalias writable writeonly sret(%"class.pxrInternal_v0_24__pxrReserved__::TfToken") align 8 captures(none) initializes((0, 8)) %0, ptr noundef nonnull align 8 dereferenceable(8) %1) local_unnamed_addr #0 align 2 personality ptr @__gxx_personality_v0 {
  %3 = alloca %"class.pxrInternal_v0_24__pxrReserved__::SdfValueTypeName", align 8
  %4 = tail call ptr @_ZNK32pxrInternal_v0_24__pxrReserved__15SdfPropertySpec11GetTypeNameEv(ptr noundef nonnull align 8 dereferenceable(8) %1)
  store ptr %4, ptr %3, align 8
  %5 = call noundef nonnull align 8 dereferenceable(8) ptr @_ZNK32pxrInternal_v0_24__pxrReserved__16SdfValueTypeName7GetRoleEv(ptr noundef nonnull align 8 dereferenceable(8) %3)
  %6 = load i64, ptr %5, align 8
  store i64 %6, ptr %0, align 8
  %7 = and i64 %6, 7
  %.not.i.i = icmp eq i64 %7, 0
  br i1 %.not.i.i, label %_ZN32pxrInternal_v0_24__pxrReserved__7TfTokenC2ERKS0_.exit, label %8

8:                                                ; preds = %2
  %9 = and i64 %6, -8
  %10 = inttoptr i64 %9 to ptr
  %11 = atomicrmw add ptr %10, i32 2 monotonic, align 4
  %12 = and i32 %11, 1
  %.not1.i.i = icmp eq i32 %12, 0
  br i1 %.not1.i.i, label %13, label %_ZN32pxrInternal_v0_24__pxrReserved__7TfTokenC2ERKS0_.exit

13:                                               ; preds = %8
  store ptr %10, ptr %0, align 8
  br label %_ZN32pxrInternal_v0_24__pxrReserved__7TfTokenC2ERKS0_.exit

_ZN32pxrInternal_v0_24__pxrReserved__7TfTokenC2ERKS0_.exit: ; preds = %2, %8, %13
  ret void
}